; Function Attrs: mustprogress nounwind uwtable
define hidden void @_ZN14ZGenerationOld8relocateEv(ptr noundef nonnull align 64 dereferenceable(6720) %0) local_unnamed_addr #0 align 2 {
  %2 = alloca %class.ZPageAllocatorStats, align 8
  %3 = getelementptr inbounds i8, ptr %0, i64 2944
  %4 = getelementptr inbounds i8, ptr %0, i64 3072
  tail call void @_ZN9ZRelocate8relocateEP14ZRelocationSet(ptr noundef nonnull align 8 dereferenceable(128) %3, ptr noundef nonnull %4) #18
  %5 = getelementptr inbounds i8, ptr %0, i64 3224
  %6 = getelementptr inbounds i8, ptr %0, i64 16
  %7 = load ptr, ptr %6, align 16
  call void @_ZNK14ZPageAllocator5statsEP11ZGeneration(ptr dead_on_unwind nonnull writable sret(%class.ZPageAllocatorStats) align 8 %2, ptr noundef nonnull align 8 dereferenceable(609) %7, ptr noundef nonnull %0) #18
  %8 = load ptr, ptr %0, align 64
  %9 = load ptr, ptr %8, align 8
  %10 = call noundef zeroext i1 %9(ptr noundef nonnull align 64 dereferenceable(6720) %0) #18
  call void @_ZN9ZStatHeap15at_relocate_endERK19ZPageAllocatorStatsb(ptr noundef nonnull align 8 dereferenceable(488) %5, ptr noundef nonnull align 8 dereferenceable(96) %2, i1 noundef zeroext %10) #18
  ret void
}